; Function Attrs: mustprogress uwtable
define void @_ZNK10open_spiel11tiny_bridge22TinyBridgeAuctionState14ActionToStringB5cxx11Eil(ptr dead_on_unwind noalias writable sret(%"class.std::__cxx11::basic_string") align 8 %0, ptr nocapture nonnull readnone align 8 %1, i32 noundef %2, i64 noundef %3) unnamed_addr #3 align 2 personality ptr @__gxx_personality_v0 {
  %5 = alloca %"class.std::allocator", align 1
  %6 = icmp eq i32 %2, -1
  br i1 %6, label %7, label %8

7:                                                ; preds = %4
  tail call void @_ZN10open_spiel11tiny_bridge10HandStringB5cxx11El(ptr dead_on_unwind writable sret(%"class.std::__cxx11::basic_string") align 8 %0, i64 noundef %3)
  br label %22

8:                                                ; preds = %4
  %9 = getelementptr inbounds [9 x ptr], ptr @_ZN10open_spiel11tiny_bridge10kActionStrE, i64 0, i64 %3
  %10 = load ptr, ptr %9, align 8
  call void @_ZNSaIcEC1Ev(ptr noundef nonnull align 1 dereferenceable(1) %5) #27
  %11 = invoke noundef ptr @_ZNSt7__cxx1112basic_stringIcSt11char_traitsIcESaIcEE13_M_local_dataEv(ptr noundef nonnull align 8 dereferenceable(32) %0)
          to label %.noexc unwind label %20

.noexc:                                           ; preds = %8
  invoke void @_ZNSt7__cxx1112basic_stringIcSt11char_traitsIcESaIcEE12_Alloc_hiderC1EPcRKS3_(ptr noundef nonnull align 8 dereferenceable(8) %0, ptr noundef %11, ptr noundef nonnull align 1 dereferenceable(1) %5)
          to label %.noexc4 unwind label %20

.noexc4:                                          ; preds = %.noexc
  %12 = icmp eq ptr %10, null
  br i1 %12, label %13, label %17

13:                                               ; preds = %.noexc4
  invoke void @_ZSt19__throw_logic_errorPKc(ptr noundef nonnull @.str.111) #26
          to label %14 unwind label %15

14:                                               ; preds = %13
  unreachable

15:                                               ; preds = %17, %13
  %16 = landingpad { ptr, i32 }
          cleanup
  call void @_ZNSaIcED2Ev(ptr noundef nonnull align 1 dereferenceable(1) %0) #27
  br label %.body

17:                                               ; preds = %.noexc4
  %18 = call noundef i64 @strlen(ptr noundef nonnull dereferenceable(1) %10) #27
  %19 = getelementptr inbounds i8, ptr %10, i64 %18
  invoke void @_ZNSt7__cxx1112basic_stringIcSt11char_traitsIcESaIcEE12_M_constructIPKcEEvT_S8_St20forward_iterator_tag(ptr noundef nonnull align 8 dereferenceable(32) %0, ptr noundef nonnull %10, ptr noundef nonnull %19)
          to label %_ZNSt7__cxx1112basic_stringIcSt11char_traitsIcESaIcEEC2IS3_EEPKcRKS3_.exit unwind label %15

_ZNSt7__cxx1112basic_stringIcSt11char_traitsIcESaIcEEC2IS3_EEPKcRKS3_.exit: ; preds = %17
  call void @_ZNSaIcED1Ev(ptr noundef nonnull align 1 dereferenceable(1) %5) #27
  br label %22

20:                                               ; preds = %.noexc, %8
  %21 = landingpad { ptr, i32 }
          cleanup
  br label %.body

.body:                                            ; preds = %15, %20
  %eh.lpad-body = phi { ptr, i32 } [ %21, %20 ], [ %16, %15 ]
  call void @_ZNSaIcED1Ev(ptr noundef nonnull align 1 dereferenceable(1) %5) #27
  resume { ptr, i32 } %eh.lpad-body

22:                                               ; preds = %_ZNSt7__cxx1112basic_stringIcSt11char_traitsIcESaIcEEC2IS3_EEPKcRKS3_.exit, %7
  ret void
}